target datalayout = "e-m:e-p270:32:32-p271:32:32-p272:64:64-i64:64-i128:128-f80:128-n8:16:32:64-S128"
target triple = "x86_64-pc-linux-gnu"

%class.OopClosure = type { ptr }
%class.ZGeneration = type { ptr, i8, ptr, ptr, %class.ZForwardingTable, %class.ZWorkers, [24 x i8], %class.ZMark, %class.ZRelocate, %class.ZRelocationSet, i64, i64, i64, i32, i32, %class.ZStatHeap, %class.ZStatCycle, %class.ZStatWorkers, %class.ZStatMark, %class.ZStatRelocation, ptr }
%class.ZForwardingTable = type { %class.ZGranuleMap }
%class.ZGranuleMap = type { i64, ptr }
%class.ZWorkers = type { %class.WorkerThreads, ptr, %class.ZLock, i32, i8, ptr }
%class.WorkerThreads = type { ptr, ptr, ptr, i32, i32, i32, %class.WorkerTaskDispatcher }
%class.WorkerTaskDispatcher = type { ptr, i32, i32, %class.Semaphore, %class.Semaphore }
%class.Semaphore = type { %class.PosixSemaphore }
%class.PosixSemaphore = type { %union.sem_t }
%union.sem_t = type { i64, [24 x i8] }
%class.ZLock = type { %class.PlatformMutex }
%class.PlatformMutex = type { %union.pthread_mutex_t }
%union.pthread_mutex_t = type { %struct.__pthread_mutex_s }
%struct.__pthread_mutex_s = type { i32, i32, i32, i32, i32, i16, i16, %struct.__pthread_internal_list }
%struct.__pthread_internal_list = type { ptr, ptr }
%class.ZMark = type <{ ptr, ptr, [48 x i8], %class.ZMarkStackAllocator, %class.ZMarkStripeSet, %class.ZMarkTerminate, i64, i64, i64, i64, i64, i64, i32, [36 x i8] }>
%class.ZMarkStackAllocator = type <{ [64 x i8], %class.ZMarkStackSpace, [56 x i8], %class.ZStackList, i8, [63 x i8] }>
%class.ZMarkStackSpace = type <{ %class.ZLock, i64, i64, i64, i8, [7 x i8] }>
%class.ZStackList = type { i64, ptr, [48 x i8] }
%class.ZMarkStripeSet = type { i64, [56 x i8], [16 x %class.ZMarkStripe] }
%class.ZMarkStripe = type { %class.ZStackList.2, %class.ZStackList.2 }
%class.ZStackList.2 = type { i64, ptr, [48 x i8] }
%class.ZMarkTerminate = type { i32, i32, i32, i8, %class.ZConditionLock }
%class.ZConditionLock = type { %class.PlatformMonitor }
%class.PlatformMonitor = type { %class.PlatformMutex, %union.pthread_cond_t }
%union.pthread_cond_t = type { %struct.__pthread_cond_s }
%struct.__pthread_cond_s = type { %union.__atomic_wide_counter, %union.__atomic_wide_counter, [2 x i32], [2 x i32], i32, i32, [2 x i32] }
%union.__atomic_wide_counter = type { i64 }
%class.ZRelocate = type { ptr, %class.ZRelocateQueue }
%class.ZRelocateQueue = type { %class.ZConditionLock, %class.GrowableArrayCHeap, i32, i32, i8, i8, i32 }
%class.GrowableArrayCHeap = type { %class.GrowableArrayWithAllocator }
%class.GrowableArrayWithAllocator = type { %class.GrowableArrayView }
%class.GrowableArrayView = type { %class.GrowableArrayBase, ptr }
%class.GrowableArrayBase = type { i32, i32 }
%class.ZRelocationSet = type { ptr, %class.ZForwardingAllocator, ptr, i64, %class.ZLock, %class.GrowableArrayCHeap.4, %class.GrowableArrayCHeap.4 }
%class.ZForwardingAllocator = type { ptr, ptr, ptr }
%class.GrowableArrayCHeap.4 = type { %class.GrowableArrayWithAllocator.5 }
%class.GrowableArrayWithAllocator.5 = type { %class.GrowableArrayView.6 }
%class.GrowableArrayView.6 = type { %class.GrowableArrayBase, ptr }
%class.ZStatHeap = type { %class.ZLock, %"struct.ZStatHeap::ZAtGenerationCollectionStart", %"struct.ZStatHeap::ZAtMarkStart", %"struct.ZStatHeap::ZAtMarkEnd", %"struct.ZStatHeap::ZAtRelocateStart", %"struct.ZStatHeap::ZAtRelocateEnd", %class.NumberSeq }
%"struct.ZStatHeap::ZAtGenerationCollectionStart" = type { i64, i64, i64, i64, i64 }
%"struct.ZStatHeap::ZAtMarkStart" = type { i64, i64, i64, i64, i64, i64 }
%"struct.ZStatHeap::ZAtMarkEnd" = type { i64, i64, i64, i64, i64, i64, i64, i64 }
%"struct.ZStatHeap::ZAtRelocateStart" = type { i64, i64, i64, i64, i64, i64, i64, i64, i64, i64, i64 }
%"struct.ZStatHeap::ZAtRelocateEnd" = type { i64, i64, i64, i64, i64, i64, i64, i64, i64, i64, i64, i64, i64, i64, i64, i64, i64 }
%class.NumberSeq = type { %class.AbsSeq, double, double }
%class.AbsSeq = type { ptr, i32, double, double, double, double, double }
%class.ZStatCycle = type { %class.ZLock, i64, %class.TimeInstant, %class.TimeInstant, %class.NumberSeq, %class.NumberSeq, %class.NumberSeq, %class.NumberSeq, double }
%class.TimeInstant = type { %class.CompositeCounterRepresentation }
%class.CompositeCounterRepresentation = type { %class.Representation }
%class.Representation = type { %class.PairRep }
%class.PairRep = type { i64, i64 }
%class.ZStatWorkers = type { %class.ZLock, i32, %class.TimeInstant, %class.TimeInterval, %class.TimeInterval }
%class.TimeInterval = type { %class.CompositeCounterRepresentation }
%class.ZStatMark = type { i64, i64, i64, i64, i64, i64 }
%class.ZStatRelocation = type { %class.ZRelocationSetSelectorStats, i64, i64, i64, i64, i64 }
%class.ZRelocationSetSelectorStats = type { [16 x %class.ZRelocationSetSelectorGroupStats], [16 x %class.ZRelocationSetSelectorGroupStats], [16 x %class.ZRelocationSetSelectorGroupStats], i64 }
%class.ZRelocationSetSelectorGroupStats = type { i64, i64, i64, i64, i64, i64 }
%class.ThreadClosure = type { ptr }
%class.SuspendibleThreadSetJoiner = type { i8 }
%class.ZRemapYoungRootsTask = type { %class.ZTask, %class.ZGenerationPagesParallelIterator, %class.ZRootsIteratorAllColored, %class.ZRootsIteratorAllUncolored, %class.ZRemapOopClosure, %class.ClaimingCLDToOopClosure, %class.ZRemapThreadClosure, %class.ZRemapNMethodClosure }
%class.ZTask = type { ptr, %"class.ZTask::Task" }
%"class.ZTask::Task" = type { %class.WorkerTask.base, ptr }
%class.WorkerTask.base = type <{ ptr, ptr, i32 }>
%class.ZGenerationPagesParallelIterator = type { [8 x i8], %class.ZPageTableParallelIterator, i8, ptr }
%class.ZPageTableParallelIterator = type { ptr, %class.ZIndexDistributor }
%class.ZIndexDistributor = type { ptr }
%class.ZRootsIteratorAllColored = type { %class.ZParallelApply, %class.ZParallelApply.35, %class.ZParallelApply.44, [6 x i8] }
%class.ZParallelApply = type { %class.ZOopStorageSetIteratorStrong, i8, [7 x i8] }
%class.ZOopStorageSetIteratorStrong = type <{ %class.OopStorageSetStrongParState, i8, [7 x i8] }>
%class.OopStorageSetStrongParState = type { %class.OopStorageSetParState }
%class.OopStorageSetParState = type { %struct.ValueObjArray }
%struct.ValueObjArray = type { [5 x ptr], %class.ValueObjBlock }
%class.ValueObjBlock = type { %"class.OopStorage::ParState", %class.ValueObjBlock.29 }
%"class.OopStorage::ParState" = type { %"class.OopStorage::BasicParState" }
%"class.OopStorage::BasicParState" = type { ptr, ptr, i64, i64, i32, i8, i64 }
%class.ValueObjBlock.29 = type { %"class.OopStorage::ParState", %class.ValueObjBlock.30 }
%class.ValueObjBlock.30 = type { %"class.OopStorage::ParState", %class.ValueObjBlock.31 }
%class.ValueObjBlock.31 = type { %"class.OopStorage::ParState", %class.ValueObjBlock.32 }
%class.ValueObjBlock.32 = type <{ %"class.OopStorage::ParState", %class.ValueObjBlock.33, [7 x i8] }>
%class.ValueObjBlock.33 = type { i8 }
%class.ZParallelApply.35 = type { %class.ZOopStorageSetIteratorWeak, i8, [7 x i8] }
%class.ZOopStorageSetIteratorWeak = type <{ %class.OopStorageSetWeakParState, i8, [7 x i8] }>
%class.OopStorageSetWeakParState = type { %class.OopStorageSetParState.36 }
%class.OopStorageSetParState.36 = type { %struct.ValueObjArray.37 }
%struct.ValueObjArray.37 = type { [10 x ptr], %class.ValueObjBlock.38 }
%class.ValueObjBlock.38 = type { %"class.OopStorage::ParState", %class.ValueObjBlock.39 }
%class.ValueObjBlock.39 = type { %"class.OopStorage::ParState", %class.ValueObjBlock.40 }
%class.ValueObjBlock.40 = type { %"class.OopStorage::ParState", %class.ValueObjBlock.41 }
%class.ValueObjBlock.41 = type { %"class.OopStorage::ParState", %class.ValueObjBlock.42 }
%class.ValueObjBlock.42 = type { %"class.OopStorage::ParState", %class.ValueObjBlock }
%class.ZParallelApply.44 = type { %class.ZCLDsIteratorAll, i8 }
%class.ZCLDsIteratorAll = type { i8 }
%class.ZRootsIteratorAllUncolored = type { %class.ZParallelApply.45, %class.ZParallelApply.47, [4 x i8] }
%class.ZParallelApply.45 = type { %class.ZJavaThreadsIterator, i8, [7 x i8] }
%class.ZJavaThreadsIterator = type <{ %class.ThreadsListHandle, i32, i8, [3 x i8] }>
%class.ThreadsListHandle = type { %class.SafeThreadsListPtr, %class.elapsedTimer }
%class.SafeThreadsListPtr = type <{ ptr, ptr, ptr, i8, i8, [6 x i8] }>
%class.elapsedTimer = type <{ i64, i64, i8, [7 x i8] }>
%class.ZParallelApply.47 = type { %class.ZNMethodsIteratorAll, i8 }
%class.ZNMethodsIteratorAll = type { %class.ZNMethodsIteratorImpl }
%class.ZNMethodsIteratorImpl = type { i8, i8, i8 }
%class.ZRemapOopClosure = type { %class.OopClosure }
%class.ClaimingCLDToOopClosure = type { %class.CLDToOopClosure.base, [4 x i8] }
%class.CLDToOopClosure.base = type <{ %class.CLDClosure, ptr, i32 }>
%class.CLDClosure = type { ptr }
%class.ZRemapThreadClosure = type { %class.ThreadClosure }
%class.ZRemapNMethodClosure = type { %class.NMethodClosure, ptr }
%class.NMethodClosure = type { ptr }

@_ZN11ZGeneration6_youngE = hidden global ptr null, align 8
@ZOldGCThreads = external global i32, align 4
@_ZTV20ZRemapYoungRootsTask = linkonce_odr hidden unnamed_addr constant { [3 x ptr] } { [3 x ptr] [ptr null, ptr null, ptr @_ZN20ZRemapYoungRootsTask4workEv] }, comdat, align 8

; Function Attrs: mustprogress nounwind uwtable
define linkonce_odr hidden void @_ZN20ZJavaThreadsIteratorD2Ev(ptr noundef nonnull align 8 dereferenceable(61) %0) unnamed_addr #1 comdat align 2 {
  %2 = alloca ptr, align 8
  store ptr %0, ptr %2, align 8
  %3 = load ptr, ptr %2, align 8
  %4 = getelementptr inbounds %class.ZJavaThreadsIterator, ptr %3, i32 0, i32 0
  call void @_ZN17ThreadsListHandleD1Ev(ptr noundef nonnull align 8 dereferenceable(56) %4) #10
  ret void
}

; Function Attrs: mustprogress nounwind uwtable
define linkonce_odr hidden void @_ZN20ZNMethodsIteratorAllD2Ev(ptr noundef nonnull align 1 dereferenceable(3) %0) unnamed_addr #1 comdat align 2 {
  %2 = alloca ptr, align 8
  store ptr %0, ptr %2, align 8
  %3 = load ptr, ptr %2, align 8
  call void @_ZN21ZNMethodsIteratorImplD2Ev(ptr noundef nonnull align 1 dereferenceable(3) %3) #10
  ret void
}

; Function Attrs: mustprogress nounwind uwtable
define linkonce_odr hidden void @_ZN14ZParallelApplyI20ZJavaThreadsIteratorED2Ev(ptr noundef nonnull align 8 dereferenceable(65) %0) unnamed_addr #1 comdat align 2 {
  %2 = alloca ptr, align 8
  store ptr %0, ptr %2, align 8
  %3 = load ptr, ptr %2, align 8
  %4 = getelementptr inbounds %class.ZParallelApply.45, ptr %3, i32 0, i32 0
  call void @_ZN20ZJavaThreadsIteratorD2Ev(ptr noundef nonnull align 8 dereferenceable(61) %4) #10
  ret void
}

; Function Attrs: mustprogress nounwind uwtable
define linkonce_odr hidden void @_ZN14ZParallelApplyI20ZNMethodsIteratorAllED2Ev(ptr noundef nonnull align 1 dereferenceable(4) %0) unnamed_addr #1 comdat align 2 {
  %2 = alloca ptr, align 8
  store ptr %0, ptr %2, align 8
  %3 = load ptr, ptr %2, align 8
  %4 = getelementptr inbounds %class.ZParallelApply.47, ptr %3, i32 0, i32 0
  call void @_ZN20ZNMethodsIteratorAllD2Ev(ptr noundef nonnull align 1 dereferenceable(3) %4) #10
  ret void
}

; Function Attrs: mustprogress nounwind uwtable
define linkonce_odr hidden void @_ZN26ZRootsIteratorAllUncoloredD2Ev(ptr noundef nonnull align 8 dereferenceable(76) %0) unnamed_addr #1 comdat align 2 {
  %2 = alloca ptr, align 8
  store ptr %0, ptr %2, align 8
  %3 = load ptr, ptr %2, align 8
  %4 = getelementptr inbounds %class.ZRootsIteratorAllUncolored, ptr %3, i32 0, i32 1
  call void @_ZN14ZParallelApplyI20ZNMethodsIteratorAllED2Ev(ptr noundef nonnull align 1 dereferenceable(4) %4) #10
  %5 = getelementptr inbounds %class.ZRootsIteratorAllUncolored, ptr %3, i32 0, i32 0
  call void @_ZN14ZParallelApplyI20ZJavaThreadsIteratorED2Ev(ptr noundef nonnull align 8 dereferenceable(65) %5) #10
  ret void
}

; Function Attrs: mustprogress nounwind uwtable
define linkonce_odr hidden noundef i32 @_Z4MIN2IjET_S0_S0_(i32 noundef %0, i32 noundef %1) #1 comdat {
  %3 = alloca i32, align 4
  %4 = alloca i32, align 4
  store i32 %0, ptr %3, align 4
  store i32 %1, ptr %4, align 4
  %5 = load i32, ptr %3, align 4
  %6 = load i32, ptr %4, align 4
  %7 = icmp ult i32 %5, %6
  br i1 %7, label %8, label %10

8:                                                ; preds = %2
  %9 = load i32, ptr %3, align 4
  br label %12

10:                                               ; preds = %2
  %11 = load i32, ptr %4, align 4
  br label %12

12:                                               ; preds = %10, %8
  %13 = phi i32 [ %9, %8 ], [ %11, %10 ]
  ret i32 %13
}

; Function Attrs: mustprogress nounwind uwtable
define linkonce_odr hidden noundef i32 @_Z4MAX2IjET_S0_S0_(i32 noundef %0, i32 noundef %1) #1 comdat {
  %3 = alloca i32, align 4
  %4 = alloca i32, align 4
  store i32 %0, ptr %3, align 4
  store i32 %1, ptr %4, align 4
  %5 = load i32, ptr %3, align 4
  %6 = load i32, ptr %4, align 4
  %7 = icmp ugt i32 %5, %6
  br i1 %7, label %8, label %10

8:                                                ; preds = %2
  %9 = load i32, ptr %3, align 4
  br label %12

10:                                               ; preds = %2
  %11 = load i32, ptr %4, align 4
  br label %12

12:                                               ; preds = %10, %8
  %13 = phi i32 [ %9, %8 ], [ %11, %10 ]
  ret i32 %13
}

; Function Attrs: mustprogress nounwind uwtable
define linkonce_odr hidden void @_ZN26SuspendibleThreadSetJoinerD2Ev(ptr noundef nonnull align 1 dereferenceable(1) %0) unnamed_addr #1 comdat align 2 {
  %2 = alloca ptr, align 8
  store ptr %0, ptr %2, align 8
  %3 = load ptr, ptr %2, align 8
  %4 = getelementptr inbounds %class.SuspendibleThreadSetJoiner, ptr %3, i32 0, i32 0
  %5 = load i8, ptr %4, align 1
  %6 = trunc i8 %5 to i1
  br i1 %6, label %7, label %8

7:                                                ; preds = %1
  call void @_ZN20SuspendibleThreadSet5leaveEv()
  br label %8

8:                                                ; preds = %7, %1
  ret void
}

; Function Attrs: mustprogress nounwind uwtable
define linkonce_odr hidden void @_ZN20ZRemapYoungRootsTaskD2Ev(ptr noundef nonnull align 8 dereferenceable(1112) %0) unnamed_addr #1 comdat align 2 {
  %2 = alloca ptr, align 8
  store ptr %0, ptr %2, align 8
  %3 = load ptr, ptr %2, align 8
  store ptr getelementptr inbounds inrange(-16, 8) ({ [3 x ptr] }, ptr @_ZTV20ZRemapYoungRootsTask, i32 0, i32 0, i32 2), ptr %3, align 8
  %4 = getelementptr inbounds %class.ZRemapYoungRootsTask, ptr %3, i32 0, i32 3
  call void @_ZN26ZRootsIteratorAllUncoloredD2Ev(ptr noundef nonnull align 8 dereferenceable(76) %4) #10
  %5 = getelementptr inbounds %class.ZRemapYoungRootsTask, ptr %3, i32 0, i32 2
  call void @_ZN24ZRootsIteratorAllColoredD2Ev(ptr noundef nonnull align 8 dereferenceable(890) %5) #10
  %6 = getelementptr inbounds %class.ZRemapYoungRootsTask, ptr %3, i32 0, i32 1
  call void @_ZN32ZGenerationPagesParallelIteratorD1Ev(ptr noundef nonnull align 8 dereferenceable(40) %6) #10
  ret void
}

; Function Attrs: mustprogress nounwind uwtable
define linkonce_odr hidden void @_ZN26SuspendibleThreadSetJoinerC2Eb(ptr noundef nonnull align 1 dereferenceable(1) %0, i1 noundef zeroext %1) unnamed_addr #1 comdat align 2 {
  %3 = alloca ptr, align 8
  %4 = alloca i8, align 1
  store ptr %0, ptr %3, align 8
  %5 = zext i1 %1 to i8
  store i8 %5, ptr %4, align 1
  %6 = load ptr, ptr %3, align 8
  %7 = getelementptr inbounds %class.SuspendibleThreadSetJoiner, ptr %6, i32 0, i32 0
  %8 = load i8, ptr %4, align 1
  %9 = trunc i8 %8 to i1
  %10 = zext i1 %9 to i8
  store i8 %10, ptr %7, align 1
  %11 = getelementptr inbounds %class.SuspendibleThreadSetJoiner, ptr %6, i32 0, i32 0
  %12 = load i8, ptr %11, align 1
  %13 = trunc i8 %12 to i1
  br i1 %13, label %14, label %15

14:                                               ; preds = %2
  call void @_ZN20SuspendibleThreadSet4joinEv()
  br label %15

15:                                               ; preds = %14, %2
  ret void
}

; Function Attrs: mustprogress nounwind uwtable
define linkonce_odr hidden noundef i32 @_Z5clampIjET_S0_S0_S0_(i32 noundef %0, i32 noundef %1, i32 noundef %2) #1 comdat {
  %4 = alloca i32, align 4
  %5 = alloca i32, align 4
  %6 = alloca i32, align 4
  store i32 %0, ptr %4, align 4
  store i32 %1, ptr %5, align 4
  store i32 %2, ptr %6, align 4
  %7 = load i32, ptr %4, align 4
  %8 = load i32, ptr %5, align 4
  %9 = call noundef i32 @_Z4MAX2IjET_S0_S0_(i32 noundef %7, i32 noundef %8)
  %10 = load i32, ptr %6, align 4
  %11 = call noundef i32 @_Z4MIN2IjET_S0_S0_(i32 noundef %9, i32 noundef %10)
  ret i32 %11
}

; Function Attrs: mustprogress nounwind uwtable
define hidden noundef ptr @_ZN11ZGeneration7workersEv(ptr noundef nonnull align 64 dereferenceable(6592) %0) #1 align 2 {
  %2 = alloca ptr, align 8
  store ptr %0, ptr %2, align 8
  %3 = load ptr, ptr %2, align 8
  %4 = getelementptr inbounds %class.ZGeneration, ptr %3, i32 0, i32 5
  ret ptr %4
}

; Function Attrs: mustprogress nounwind uwtable
define linkonce_odr hidden noundef ptr @_ZN11ZGeneration5youngEv() #1 comdat align 2 {
  %1 = load ptr, ptr @_ZN11ZGeneration6_youngE, align 8
  ret ptr %1
}

; Function Attrs: mustprogress nounwind uwtable
define hidden void @_ZN14ZGenerationOld17remap_young_rootsEv(ptr noundef nonnull align 64 dereferenceable(6720) %0) #1 align 2 {
  %2 = alloca ptr, align 8
  %3 = alloca i32, align 4
  %4 = alloca i32, align 4
  %5 = alloca %class.SuspendibleThreadSetJoiner, align 1
  %6 = alloca %class.ZRemapYoungRootsTask, align 8
  store ptr %0, ptr %2, align 8
  %7 = load ptr, ptr %2, align 8
  %8 = getelementptr inbounds %class.ZGeneration, ptr %7, i32 0, i32 5
  %9 = call noundef i32 @_ZNK8ZWorkers14active_workersEv(ptr noundef nonnull align 8 dereferenceable(184) %8)
  store i32 %9, ptr %3, align 4
  %10 = call noundef ptr @_ZN11ZGeneration5youngEv()
  %11 = call noundef ptr @_ZN11ZGeneration7workersEv(ptr noundef nonnull align 64 dereferenceable(6592) %10)
  %12 = call noundef i32 @_ZNK8ZWorkers14active_workersEv(ptr noundef nonnull align 8 dereferenceable(184) %11)
  %13 = load i32, ptr %3, align 4
  %14 = add i32 %12, %13
  %15 = load i32, ptr @ZOldGCThreads, align 4
  %16 = call noundef i32 @_Z5clampIjET_S0_S0_S0_(i32 noundef %14, i32 noundef 1, i32 noundef %15)
  store i32 %16, ptr %4, align 4
  %17 = getelementptr inbounds %class.ZGeneration, ptr %7, i32 0, i32 5
  %18 = load i32, ptr %4, align 4
  call void @_ZN8ZWorkers18set_active_workersEj(ptr noundef nonnull align 8 dereferenceable(184) %17, i32 noundef %18)
  call void @_ZN26SuspendibleThreadSetJoinerC2Eb(ptr noundef nonnull align 1 dereferenceable(1) %5, i1 noundef zeroext true)
  %19 = getelementptr inbounds %class.ZGeneration, ptr %7, i32 0, i32 3
  %20 = load ptr, ptr %19, align 8
  %21 = getelementptr inbounds %class.ZGeneration, ptr %7, i32 0, i32 2
  %22 = load ptr, ptr %21, align 16
  call void @_ZN20ZRemapYoungRootsTaskC2EP10ZPageTableP14ZPageAllocator(ptr noundef nonnull align 8 dereferenceable(1112) %6, ptr noundef %20, ptr noundef %22)
  %23 = call noundef ptr @_ZN11ZGeneration7workersEv(ptr noundef nonnull align 64 dereferenceable(6592) %7)
  call void @_ZN8ZWorkers3runEP5ZTask(ptr noundef nonnull align 8 dereferenceable(184) %23, ptr noundef %6)
  %24 = getelementptr inbounds %class.ZGeneration, ptr %7, i32 0, i32 5
  %25 = load i32, ptr %3, align 4
  call void @_ZN8ZWorkers18set_active_workersEj(ptr noundef nonnull align 8 dereferenceable(184) %24, i32 noundef %25)
  call void @_ZN20ZRemapYoungRootsTaskD2Ev(ptr noundef nonnull align 8 dereferenceable(1112) %6) #10
  call void @_ZN26SuspendibleThreadSetJoinerD2Ev(ptr noundef nonnull align 1 dereferenceable(1) %5) #10
  ret void
}