; Function Attrs: mustprogress nounwind uwtable
define hidden void @_ZN14ZGenerationOld17remap_young_rootsEv(ptr noundef nonnull align 64 dereferenceable(6720) %0) local_unnamed_addr #0 align 2 {
_ZN26SuspendibleThreadSetJoinerD2Ev.exit:
  %1 = alloca %class.ZRemapYoungRootsTask, align 8
  %2 = getelementptr inbounds i8, ptr %0, i64 48
  %3 = tail call noundef i32 @_ZNK8ZWorkers14active_workersEv(ptr noundef nonnull align 8 dereferenceable(184) %2) #18
  %4 = load ptr, ptr @_ZN11ZGeneration6_youngE, align 8
  %5 = getelementptr inbounds i8, ptr %4, i64 48
  %6 = tail call noundef i32 @_ZNK8ZWorkers14active_workersEv(ptr noundef nonnull align 8 dereferenceable(184) %5) #18
  %7 = add i32 %6, %3
  %8 = load i32, ptr @ZOldGCThreads, align 4
  %9 = tail call noundef i32 @llvm.umax.i32(i32 %7, i32 1)
  %10 = tail call noundef i32 @llvm.umin.i32(i32 %9, i32 %8)
  tail call void @_ZN8ZWorkers18set_active_workersEj(ptr noundef nonnull align 8 dereferenceable(184) %2, i32 noundef %10) #18
  tail call void @_ZN20SuspendibleThreadSet4joinEv() #18
  %11 = getelementptr inbounds i8, ptr %0, i64 24
  %12 = load ptr, ptr %11, align 8
  %13 = getelementptr inbounds i8, ptr %0, i64 16
  %14 = load ptr, ptr %13, align 16
  call void @_ZN20ZRemapYoungRootsTaskC2EP10ZPageTableP14ZPageAllocator(ptr noundef nonnull align 8 dereferenceable(1112) %1, ptr noundef %12, ptr noundef %14)
  call void @_ZN8ZWorkers3runEP5ZTask(ptr noundef nonnull align 8 dereferenceable(184) %2, ptr noundef nonnull %1) #18
  call void @_ZN8ZWorkers18set_active_workersEj(ptr noundef nonnull align 8 dereferenceable(184) %2, i32 noundef %3) #18
  store ptr getelementptr inbounds inrange(-16, 8) (i8, ptr @_ZTV20ZRemapYoungRootsTask, i64 16), ptr %1, align 8
  %15 = getelementptr inbounds i8, ptr %1, i64 976
  %16 = getelementptr inbounds i8, ptr %1, i64 1048
  call void @_ZN21ZNMethodsIteratorImplD2Ev(ptr noundef nonnull align 1 dereferenceable(3) %16) #18
  call void @_ZN17ThreadsListHandleD1Ev(ptr noundef nonnull align 8 dereferenceable(56) %15) #18
  %17 = getelementptr inbounds i8, ptr %1, i64 80
  call void @_ZN24ZRootsIteratorAllColoredD2Ev(ptr noundef nonnull align 8 dereferenceable(890) %17) #18
  %18 = getelementptr inbounds i8, ptr %1, i64 40
  call void @_ZN32ZGenerationPagesParallelIteratorD1Ev(ptr noundef nonnull align 8 dereferenceable(40) %18) #18
  call void @_ZN20SuspendibleThreadSet5leaveEv() #18
  ret void
}